; Function Attrs: mustprogress nounwind willreturn uwtable
define void @Msat_IntVecPush(ptr noundef captures(none) %0, i32 noundef %1) local_unnamed_addr #5 {
  %3 = getelementptr inbounds nuw i8, ptr %0, i64 8
  %4 = load i32, ptr %3, align 8, !tbaa !3
  %5 = getelementptr inbounds nuw i8, ptr %0, i64 12
  %6 = load i32, ptr %5, align 4, !tbaa !10
  %7 = icmp eq i32 %4, %6
  br i1 %7, label %8, label %.Msat_IntVecGrow.exit10_crit_edge

.Msat_IntVecGrow.exit10_crit_edge:                ; preds = %2
  %.pre = load ptr, ptr %0, align 8, !tbaa !11
  br label %Msat_IntVecGrow.exit10

8:                                                ; preds = %2
  %9 = icmp slt i32 %4, 16
  br i1 %9, label %10, label %17

10:                                               ; preds = %8
  %11 = load ptr, ptr %0, align 8, !tbaa !11
  %.not9.i = icmp eq ptr %11, null
  br i1 %.not9.i, label %14, label %12

12:                                               ; preds = %10
  %13 = tail call dereferenceable_or_null(64) ptr @realloc(ptr noundef nonnull %11, i64 noundef 64) #21
  br label %Msat_IntVecGrow.exit

14:                                               ; preds = %10
  %15 = tail call noalias dereferenceable_or_null(64) ptr @malloc(i64 noundef 64) #19
  br label %Msat_IntVecGrow.exit

Msat_IntVecGrow.exit:                             ; preds = %12, %14
  %16 = phi ptr [ %13, %12 ], [ %15, %14 ]
  store ptr %16, ptr %0, align 8, !tbaa !11
  store i32 16, ptr %5, align 4, !tbaa !10
  br label %Msat_IntVecGrow.exit10

17:                                               ; preds = %8
  %18 = shl nuw nsw i32 %4, 1
  %19 = load ptr, ptr %0, align 8, !tbaa !11
  %.not9.i9 = icmp eq ptr %19, null
  %20 = zext nneg i32 %18 to i64
  %21 = shl nuw nsw i64 %20, 2
  br i1 %.not9.i9, label %24, label %22

22:                                               ; preds = %17
  %23 = tail call ptr @realloc(ptr noundef nonnull %19, i64 noundef %21) #21
  br label %26

24:                                               ; preds = %17
  %25 = tail call noalias ptr @malloc(i64 noundef %21) #19
  br label %26

26:                                               ; preds = %24, %22
  %27 = phi ptr [ %23, %22 ], [ %25, %24 ]
  store ptr %27, ptr %0, align 8, !tbaa !11
  store i32 %18, ptr %5, align 4, !tbaa !10
  br label %Msat_IntVecGrow.exit10

Msat_IntVecGrow.exit10:                           ; preds = %.Msat_IntVecGrow.exit10_crit_edge, %26, %Msat_IntVecGrow.exit
  %28 = phi ptr [ %.pre, %.Msat_IntVecGrow.exit10_crit_edge ], [ %27, %26 ], [ %16, %Msat_IntVecGrow.exit ]
  %29 = load i32, ptr %3, align 8, !tbaa !3
  %30 = add nsw i32 %29, 1
  store i32 %30, ptr %3, align 8, !tbaa !3
  %31 = sext i32 %29 to i64
  %32 = getelementptr inbounds i32, ptr %28, i64 %31
  store i32 %1, ptr %32, align 4, !tbaa !12
  ret void
}